target datalayout = "e-m:e-p270:32:32-p271:32:32-p272:64:64-i64:64-i128:128-f80:128-n8:16:32:64-S128"
target triple = "x86_64-unknown-linux-gnu"

%"struct.proxygen::CompressionInfo" = type { %"struct.proxygen::CompressionInfoPart", %"struct.proxygen::CompressionInfoPart" }
%"struct.proxygen::CompressionInfoPart" = type { i32, i32, i32, i32, i32, i32, i32 }
%"class.std::chrono::time_point" = type { %"class.std::chrono::duration" }
%"class.std::chrono::duration" = type { i64 }
%"class.std::chrono::duration.6" = type { i64 }
%"class.folly::HHWheelTimerBase<std::chrono::duration<long, std::ratio<1, 1000>>>::Callback" = type { ptr, %"class.boost::intrusive::list_base_hook", ptr, %"class.std::chrono::time_point", i32, %"class.std::shared_ptr" }
%"class.boost::intrusive::list_base_hook" = type { %"class.boost::intrusive::generic_hook" }
%"class.boost::intrusive::generic_hook" = type { %"struct.boost::intrusive::node_holder" }
%"struct.boost::intrusive::node_holder" = type { %"struct.boost::intrusive::list_node" }
%"struct.boost::intrusive::list_node" = type { ptr, ptr }
%"class.std::shared_ptr" = type { %"class.std::__shared_ptr" }
%"class.std::__shared_ptr" = type { ptr, %"class.std::__shared_count" }
%"class.std::__shared_count" = type { ptr }
%"class.folly::DelayedDestructionBase.base" = type <{ ptr, i32 }>
%"struct.std::__detail::_List_node_header" = type { %"struct.std::__detail::_List_node_base", i64 }
%"struct.std::__detail::_List_node_base" = type { ptr, ptr }
%"class.folly::Optional.32" = type { %"struct.folly::Optional<unsigned long>::StorageTriviallyDestructible" }
%"struct.folly::Optional<unsigned long>::StorageTriviallyDestructible" = type <{ %union.anon.33, i8, [7 x i8] }>
%union.anon.33 = type { i64 }
%"class.std::unique_ptr.48" = type { %"struct.std::__uniq_ptr_data.49" }
%"struct.std::__uniq_ptr_data.49" = type { %"class.std::__uniq_ptr_impl.50" }
%"class.std::__uniq_ptr_impl.50" = type { %"class.std::tuple.51" }
%"class.std::tuple.51" = type { %"struct.std::_Tuple_impl.52" }
%"struct.std::_Tuple_impl.52" = type { %"struct.std::_Head_base.55" }
%"struct.std::_Head_base.55" = type { ptr }
%"class.std::function" = type { %"class.std::_Function_base", ptr }
%"class.std::_Function_base" = type { %"union.std::_Any_data", ptr }
%"union.std::_Any_data" = type { %"union.std::_Nocopy_types" }
%"union.std::_Nocopy_types" = type { { i64, i64 } }
%"class.proxygen::HTTPTransaction" = type { %"class.folly::HHWheelTimerBase<std::chrono::duration<long, std::ratio<1, 1000>>>::Callback", %"class.folly::DelayedDestructionBase.base", %"class.proxygen::HTTPTransaction::RateLimitCallback", %"class.std::unique_ptr.56", %"class.folly::IOBufQueue", %"struct.proxygen::HTTPTransaction::BufferMeta", i8, i8, i8, i32, i64, i32, i32, ptr, ptr, ptr, %"struct.proxygen::CompressionInfo", %"class.proxygen::Window", %"class.proxygen::Window", ptr, %"class.std::unique_ptr.64", %"class.std::__cxx11::list.72", ptr, ptr, %"class.folly::Optional.32", %"class.folly::Optional.77", %"class.std::set", %"class.std::set", %"struct.proxygen::http2::PriorityUpdate", i64, i64, double, i64, i64, %"class.folly::Optional.32", %"class.folly::Optional.32", %"class.folly::Optional.32", %"class.folly::Optional.32", i64, %"class.std::map", i24, i16, i64, %"class.std::chrono::time_point", i64, %"class.folly::Optional.86", ptr, i64, i8, %"class.std::map.88", %"class.std::map.93", %"class.proxygen::HTTPTransaction::TxnWebTransport" }
%"class.proxygen::HTTPTransaction::RateLimitCallback" = type { %"class.folly::HHWheelTimerBase<std::chrono::duration<long, std::ratio<1, 1000>>>::Callback", ptr }
%"class.std::unique_ptr.56" = type { %"struct.std::__uniq_ptr_data.57" }
%"struct.std::__uniq_ptr_data.57" = type { %"class.std::__uniq_ptr_impl.58" }
%"class.std::__uniq_ptr_impl.58" = type { %"class.std::tuple.59" }
%"class.std::tuple.59" = type { %"struct.std::_Tuple_impl.60" }
%"struct.std::_Tuple_impl.60" = type { %"struct.std::_Head_base.63" }
%"struct.std::_Head_base.63" = type { ptr }
%"class.folly::IOBufQueue" = type { %"struct.folly::IOBufQueue::Options", i64, %"class.std::unique_ptr.48", ptr, ptr, %"struct.folly::IOBufQueue::WritableRangeCacheData", ptr }
%"struct.folly::IOBufQueue::Options" = type { i8 }
%"struct.folly::IOBufQueue::WritableRangeCacheData" = type <{ %"struct.std::pair", i8, [7 x i8] }>
%"struct.std::pair" = type { ptr, ptr }
%"struct.proxygen::HTTPTransaction::BufferMeta" = type { i64 }
%"class.proxygen::Window" = type { i32, i32 }
%"class.std::unique_ptr.64" = type { %"struct.std::__uniq_ptr_data.65" }
%"struct.std::__uniq_ptr_data.65" = type { %"class.std::__uniq_ptr_impl.66" }
%"class.std::__uniq_ptr_impl.66" = type { %"class.std::tuple.67" }
%"class.std::tuple.67" = type { %"struct.std::_Tuple_impl.68" }
%"struct.std::_Tuple_impl.68" = type { %"struct.std::_Head_base.71" }
%"struct.std::_Head_base.71" = type { ptr }
%"class.std::__cxx11::list.72" = type { %"class.std::__cxx11::_List_base.73" }
%"class.std::__cxx11::_List_base.73" = type { %"struct.std::__cxx11::_List_base<proxygen::HTTPTransaction::Chunk, std::allocator<proxygen::HTTPTransaction::Chunk>>::_List_impl" }
%"struct.std::__cxx11::_List_base<proxygen::HTTPTransaction::Chunk, std::allocator<proxygen::HTTPTransaction::Chunk>>::_List_impl" = type { %"struct.std::__detail::_List_node_header" }
%"class.folly::Optional.77" = type { %"struct.folly::Optional<proxygen::HTTPCodec::ExAttributes>::StorageTriviallyDestructible" }
%"struct.folly::Optional<proxygen::HTTPCodec::ExAttributes>::StorageTriviallyDestructible" = type { %union.anon.78, i8, [7 x i8] }
%union.anon.78 = type { %"struct.proxygen::HTTPCodec::ExAttributes" }
%"struct.proxygen::HTTPCodec::ExAttributes" = type <{ i64, i8, [7 x i8] }>
%"class.std::set" = type { %"class.std::_Rb_tree" }
%"class.std::_Rb_tree" = type { %"struct.std::_Rb_tree<unsigned long, unsigned long, std::_Identity<unsigned long>, std::less<unsigned long>>::_Rb_tree_impl" }
%"struct.std::_Rb_tree<unsigned long, unsigned long, std::_Identity<unsigned long>, std::less<unsigned long>>::_Rb_tree_impl" = type { %"struct.std::_Rb_tree_key_compare", %"struct.std::_Rb_tree_header" }
%"struct.std::_Rb_tree_key_compare" = type { %"struct.std::less" }
%"struct.std::less" = type { i8 }
%"struct.std::_Rb_tree_header" = type { %"struct.std::_Rb_tree_node_base", i64 }
%"struct.std::_Rb_tree_node_base" = type { i32, ptr, ptr, ptr }
%"struct.proxygen::http2::PriorityUpdate" = type { i64, i8, i8 }
%"class.std::map" = type { %"class.std::_Rb_tree.82" }
%"class.std::_Rb_tree.82" = type { %"struct.std::_Rb_tree<unsigned long, std::pair<const unsigned long, proxygen::ByteEvent::EventFlags>, std::_Select1st<std::pair<const unsigned long, proxygen::ByteEvent::EventFlags>>, std::less<unsigned long>>::_Rb_tree_impl" }
%"struct.std::_Rb_tree<unsigned long, std::pair<const unsigned long, proxygen::ByteEvent::EventFlags>, std::_Select1st<std::pair<const unsigned long, proxygen::ByteEvent::EventFlags>>, std::less<unsigned long>>::_Rb_tree_impl" = type { %"struct.std::_Rb_tree_key_compare", %"struct.std::_Rb_tree_header" }
%"class.folly::Optional.86" = type { %"struct.folly::Optional<std::chrono::duration<long, std::ratio<1, 1000>>>::StorageTriviallyDestructible" }
%"struct.folly::Optional<std::chrono::duration<long, std::ratio<1, 1000>>>::StorageTriviallyDestructible" = type <{ %union.anon.87, i8, [7 x i8] }>
%union.anon.87 = type { %"class.std::chrono::duration.6" }
%"class.std::map.88" = type { %"class.std::_Rb_tree.89" }
%"class.std::_Rb_tree.89" = type { %"struct.std::_Rb_tree<unsigned long, std::pair<const unsigned long, proxygen::HTTPTransaction::TxnStreamWriteHandle>, std::_Select1st<std::pair<const unsigned long, proxygen::HTTPTransaction::TxnStreamWriteHandle>>, std::less<unsigned long>>::_Rb_tree_impl" }
%"struct.std::_Rb_tree<unsigned long, std::pair<const unsigned long, proxygen::HTTPTransaction::TxnStreamWriteHandle>, std::_Select1st<std::pair<const unsigned long, proxygen::HTTPTransaction::TxnStreamWriteHandle>>, std::less<unsigned long>>::_Rb_tree_impl" = type { %"struct.std::_Rb_tree_key_compare", %"struct.std::_Rb_tree_header" }
%"class.std::map.93" = type { %"class.std::_Rb_tree.94" }
%"class.std::_Rb_tree.94" = type { %"struct.std::_Rb_tree<unsigned long, std::pair<const unsigned long, proxygen::HTTPTransaction::TxnStreamReadHandle>, std::_Select1st<std::pair<const unsigned long, proxygen::HTTPTransaction::TxnStreamReadHandle>>, std::less<unsigned long>>::_Rb_tree_impl" }
%"struct.std::_Rb_tree<unsigned long, std::pair<const unsigned long, proxygen::HTTPTransaction::TxnStreamReadHandle>, std::_Select1st<std::pair<const unsigned long, proxygen::HTTPTransaction::TxnStreamReadHandle>>, std::less<unsigned long>>::_Rb_tree_impl" = type { %"struct.std::_Rb_tree_key_compare", %"struct.std::_Rb_tree_header" }
%"class.proxygen::HTTPTransaction::TxnWebTransport" = type { %"class.proxygen::WebTransport", ptr }
%"class.proxygen::WebTransport" = type { ptr }

; Function Attrs: mustprogress nounwind uwtable
define linkonce_odr void @_ZNSt14_Function_baseD2Ev(ptr noundef nonnull align 8 dereferenceable(24) %this) unnamed_addr #5 comdat align 2 personality ptr @__gxx_personality_v0 {
entry:
  %this.addr = alloca ptr, align 8
  store ptr %this, ptr %this.addr, align 8
  %this1 = load ptr, ptr %this.addr, align 8
  %_M_manager = getelementptr inbounds %"class.std::_Function_base", ptr %this1, i32 0, i32 1
  %0 = load ptr, ptr %_M_manager, align 8
  %tobool = icmp ne ptr %0, null
  br i1 %tobool, label %if.then, label %if.end

if.then:                                          ; preds = %entry
  %_M_manager2 = getelementptr inbounds %"class.std::_Function_base", ptr %this1, i32 0, i32 1
  %1 = load ptr, ptr %_M_manager2, align 8
  %_M_functor = getelementptr inbounds %"class.std::_Function_base", ptr %this1, i32 0, i32 0
  %_M_functor3 = getelementptr inbounds %"class.std::_Function_base", ptr %this1, i32 0, i32 0
  %call = invoke noundef zeroext i1 %1(ptr noundef nonnull align 8 dereferenceable(16) %_M_functor, ptr noundef nonnull align 8 dereferenceable(16) %_M_functor3, i32 noundef 3)
          to label %invoke.cont unwind label %terminate.lpad

invoke.cont:                                      ; preds = %if.then
  br label %if.end

if.end:                                           ; preds = %invoke.cont, %entry
  ret void

terminate.lpad:                                   ; preds = %if.then
  %2 = landingpad { ptr, i32 }
          catch ptr null
  %3 = extractvalue { ptr, i32 } %2, 0
  call void @__clang_call_terminate(ptr %3) #19
  unreachable
}

; Function Attrs: mustprogress nounwind uwtable
define linkonce_odr void @_ZNSt14_Function_baseC2Ev(ptr noundef nonnull align 8 dereferenceable(24) %this) unnamed_addr #5 comdat align 2 {
entry:
  %this.addr = alloca ptr, align 8
  store ptr %this, ptr %this.addr, align 8
  %this1 = load ptr, ptr %this.addr, align 8
  %_M_functor = getelementptr inbounds %"class.std::_Function_base", ptr %this1, i32 0, i32 0
  store ptr null, ptr %_M_functor, align 8
  %_M_manager = getelementptr inbounds %"class.std::_Function_base", ptr %this1, i32 0, i32 1
  store ptr null, ptr %_M_manager, align 8
  ret void
}

; Function Attrs: mustprogress nounwind uwtable
define linkonce_odr void @_ZNSt8functionIFvRN8proxygen9ByteEventEEED2Ev(ptr noundef nonnull align 8 dereferenceable(32) %this) unnamed_addr #5 comdat align 2 {
entry:
  %this.addr = alloca ptr, align 8
  store ptr %this, ptr %this.addr, align 8
  %this1 = load ptr, ptr %this.addr, align 8
  call void @_ZNSt14_Function_baseD2Ev(ptr noundef nonnull align 8 dereferenceable(24) %this1) #3
  ret void
}

; Function Attrs: mustprogress nounwind uwtable
define linkonce_odr void @_ZNSt8functionIFvRN8proxygen9ByteEventEEEC2EDn(ptr noundef nonnull align 8 dereferenceable(32) %this, ptr %0) unnamed_addr #5 comdat align 2 {
entry:
  %this.addr = alloca ptr, align 8
  %.addr = alloca ptr, align 8
  store ptr %this, ptr %this.addr, align 8
  store ptr %0, ptr %.addr, align 8
  %this1 = load ptr, ptr %this.addr, align 8
  %1 = getelementptr inbounds i8, ptr %this1, i64 0
  call void @llvm.memset.p0.i64(ptr align 8 %1, i8 0, i64 24, i1 false)
  call void @_ZNSt14_Function_baseC2Ev(ptr noundef nonnull align 8 dereferenceable(24) %this1) #3
  %_M_invoker = getelementptr inbounds %"class.std::function", ptr %this1, i32 0, i32 1
  store ptr null, ptr %_M_invoker, align 8
  ret void
}

; Function Attrs: mustprogress nounwind uwtable
define linkonce_odr noundef zeroext i1 @_ZN8proxygen15HTTPTransaction23testAndSetFirstByteSentEv(ptr noundef nonnull align 8 dereferenceable(912) %this) #5 comdat align 2 {
entry:
  %this.addr = alloca ptr, align 8
  %ret = alloca i8, align 1
  store ptr %this, ptr %this.addr, align 8
  %this1 = load ptr, ptr %this.addr, align 8
  %firstByteSent_ = getelementptr inbounds %"class.proxygen::HTTPTransaction", ptr %this1, i32 0, i32 40
  %bf.load = load i32, ptr %firstByteSent_, align 8
  %bf.lshr = lshr i32 %bf.load, 8
  %bf.clear = and i32 %bf.lshr, 1
  %bf.cast = trunc i32 %bf.clear to i1
  %frombool = zext i1 %bf.cast to i8
  store i8 %frombool, ptr %ret, align 1
  %firstByteSent_2 = getelementptr inbounds %"class.proxygen::HTTPTransaction", ptr %this1, i32 0, i32 40
  %bf.load3 = load i32, ptr %firstByteSent_2, align 8
  %bf.clear4 = and i32 %bf.load3, -257
  %bf.set = or i32 %bf.clear4, 256
  store i32 %bf.set, ptr %firstByteSent_2, align 8
  %0 = load i8, ptr %ret, align 1
  %tobool = trunc i8 %0 to i1
  ret i1 %tobool
}

; Function Attrs: mustprogress uwtable
define void @_ZN8proxygen15HTTPSessionBase20handleLastByteEventsEPNS_16ByteEventTrackerEPNS_15HTTPTransactionEmmb(ptr noundef %byteEventTracker, ptr noundef %txn, i64 noundef %encodedSize, i64 noundef %byteOffset, i1 noundef zeroext %piggybacked) #4 align 2 {
entry:
  %byteEventTracker.addr = alloca ptr, align 8
  %txn.addr = alloca ptr, align 8
  %encodedSize.addr = alloca i64, align 8
  %byteOffset.addr = alloca i64, align 8
  %piggybacked.addr = alloca i8, align 1
  %agg.tmp = alloca %"class.std::function", align 8
  store ptr %byteEventTracker, ptr %byteEventTracker.addr, align 8
  store ptr %txn, ptr %txn.addr, align 8
  store i64 %encodedSize, ptr %encodedSize.addr, align 8
  store i64 %byteOffset, ptr %byteOffset.addr, align 8
  %frombool = zext i1 %piggybacked to i8
  store i8 %frombool, ptr %piggybacked.addr, align 1
  %0 = load ptr, ptr %txn.addr, align 8
  %call = call noundef zeroext i1 @_ZN8proxygen15HTTPTransaction23testAndSetFirstByteSentEv(ptr noundef nonnull align 8 dereferenceable(912) %0)
  br i1 %call, label %if.end, label %if.then

if.then:                                          ; preds = %entry
  %1 = load ptr, ptr %txn.addr, align 8
  call void @_ZN8proxygen15HTTPTransaction21onEgressBodyFirstByteEv(ptr noundef nonnull align 8 dereferenceable(912) %1)
  br label %if.end

if.end:                                           ; preds = %if.then, %entry
  %2 = load i8, ptr %piggybacked.addr, align 1
  %tobool = trunc i8 %2 to i1
  br i1 %tobool, label %if.end2, label %if.then1

if.then1:                                         ; preds = %if.end
  %3 = load ptr, ptr %txn.addr, align 8
  call void @_ZN8proxygen15HTTPTransaction20onEgressBodyLastByteEv(ptr noundef nonnull align 8 dereferenceable(912) %3)
  br label %if.end2

if.end2:                                          ; preds = %if.then1, %if.end
  %4 = load ptr, ptr %byteEventTracker.addr, align 8
  %tobool3 = icmp ne ptr %4, null
  br i1 %tobool3, label %land.lhs.true, label %if.end5

land.lhs.true:                                    ; preds = %if.end2
  %5 = load i64, ptr %encodedSize.addr, align 8
  %cmp = icmp ugt i64 %5, 0
  br i1 %cmp, label %if.then4, label %if.end5

if.then4:                                         ; preds = %land.lhs.true
  %6 = load ptr, ptr %byteEventTracker.addr, align 8
  %7 = load ptr, ptr %txn.addr, align 8
  %8 = load i64, ptr %byteOffset.addr, align 8
  call void @_ZNSt8functionIFvRN8proxygen9ByteEventEEEC2EDn(ptr noundef nonnull align 8 dereferenceable(32) %agg.tmp, ptr null) #3
  %vtable = load ptr, ptr %6, align 8
  %vfn = getelementptr inbounds ptr, ptr %vtable, i64 8
  %9 = load ptr, ptr %vfn, align 8
  call void %9(ptr noundef nonnull align 8 dereferenceable(48) %6, ptr noundef %7, i64 noundef %8, ptr noundef %agg.tmp) #3
  call void @_ZNSt8functionIFvRN8proxygen9ByteEventEEED2Ev(ptr noundef nonnull align 8 dereferenceable(32) %agg.tmp) #3
  br label %if.end5

if.end5:                                          ; preds = %if.then4, %land.lhs.true, %if.end2
  ret void
}