; Function Attrs: mustprogress uwtable
define void @_ZN8proxygen15HTTPSessionBase20handleLastByteEventsEPNS_16ByteEventTrackerEPNS_15HTTPTransactionEmmb(ptr noundef %byteEventTracker, ptr noundef %txn, i64 noundef %encodedSize, i64 noundef %byteOffset, i1 noundef zeroext %piggybacked) local_unnamed_addr #3 align 2 personality ptr @__gxx_personality_v0 {
entry:
  %agg.tmp = alloca %"class.std::function", align 8
  %firstByteSent_.i = getelementptr inbounds i8, ptr %txn, i64 728
  %bf.load.i = load i32, ptr %firstByteSent_.i, align 8
  %0 = and i32 %bf.load.i, 256
  %bf.cast.i.not = icmp eq i32 %0, 0
  %bf.set.i = or i32 %bf.load.i, 256
  store i32 %bf.set.i, ptr %firstByteSent_.i, align 8
  br i1 %bf.cast.i.not, label %if.then, label %if.end

if.then:                                          ; preds = %entry
  tail call void @_ZN8proxygen15HTTPTransaction21onEgressBodyFirstByteEv(ptr noundef nonnull align 8 dereferenceable(912) %txn)
  br label %if.end

if.end:                                           ; preds = %if.then, %entry
  br i1 %piggybacked, label %if.end2, label %if.then1

if.then1:                                         ; preds = %if.end
  tail call void @_ZN8proxygen15HTTPTransaction20onEgressBodyLastByteEv(ptr noundef nonnull align 8 dereferenceable(912) %txn)
  br label %if.end2

if.end2:                                          ; preds = %if.then1, %if.end
  %tobool3 = icmp ne ptr %byteEventTracker, null
  %cmp = icmp ne i64 %encodedSize, 0
  %or.cond = and i1 %tobool3, %cmp
  br i1 %or.cond, label %if.then4, label %if.end5

if.then4:                                         ; preds = %if.end2
  call void @llvm.memset.p0.i64(ptr noundef nonnull align 8 dereferenceable(32) %agg.tmp, i8 0, i64 32, i1 false)
  %vtable = load ptr, ptr %byteEventTracker, align 8
  %vfn = getelementptr inbounds i8, ptr %vtable, i64 64
  %1 = load ptr, ptr %vfn, align 8
  call void %1(ptr noundef nonnull align 8 dereferenceable(48) %byteEventTracker, ptr noundef nonnull %txn, i64 noundef %byteOffset, ptr noundef nonnull %agg.tmp) #21
  %_M_manager.i.i = getelementptr inbounds i8, ptr %agg.tmp, i64 16
  %2 = load ptr, ptr %_M_manager.i.i, align 8
  %tobool.not.i.i = icmp eq ptr %2, null
  br i1 %tobool.not.i.i, label %if.end5, label %if.then.i.i

if.then.i.i:                                      ; preds = %if.then4
  %call.i.i = invoke noundef zeroext i1 %2(ptr noundef nonnull align 8 dereferenceable(16) %agg.tmp, ptr noundef nonnull align 8 dereferenceable(16) %agg.tmp, i32 noundef 3)
          to label %if.end5 unwind label %terminate.lpad.i.i

terminate.lpad.i.i:                               ; preds = %if.then.i.i
  %3 = landingpad { ptr, i32 }
          catch ptr null
  %4 = extractvalue { ptr, i32 } %3, 0
  call void @__clang_call_terminate(ptr %4) #24
  unreachable

if.end5:                                          ; preds = %if.then.i.i, %if.then4, %if.end2
  ret void
}